; Function Attrs: mustprogress uwtable
define internal void @_ZNK12_GLOBAL__N_116itanium_demangle12NoexceptSpec9printLeftERNS0_12OutputBufferE(ptr noundef nonnull readonly align 8 captures(none) dereferenceable(24) %0, ptr noundef nonnull align 8 dereferenceable(44) %1) unnamed_addr #2 align 2 {
  %3 = getelementptr inbounds nuw i8, ptr %1, i64 16
  %4 = load i64, ptr %3, align 8, !tbaa !224
  %5 = add i64 %4, 8
  %6 = getelementptr inbounds nuw i8, ptr %1, i64 24
  %7 = load i64, ptr %6, align 8, !tbaa !225
  %8 = icmp ugt i64 %5, %7
  br i1 %8, label %9, label %._ZN12_GLOBAL__N_116itanium_demangle12OutputBuffer4growEm.exit_crit_edge.i

._ZN12_GLOBAL__N_116itanium_demangle12OutputBuffer4growEm.exit_crit_edge.i: ; preds = %2
  %.phi.trans.insert.i = getelementptr inbounds nuw i8, ptr %1, i64 8
  %.pre.i = load ptr, ptr %.phi.trans.insert.i, align 8, !tbaa !222
  br label %_ZN12_GLOBAL__N_116itanium_demangle12OutputBuffer4growEm.exit.i

9:                                                ; preds = %2
  %10 = add i64 %4, 1000
  %11 = shl i64 %7, 1
  %spec.select.i.i = tail call i64 @llvm.umax.i64(i64 %11, i64 %10)
  store i64 %spec.select.i.i, ptr %6, align 8, !tbaa !225
  %12 = getelementptr inbounds nuw i8, ptr %1, i64 8
  %13 = load ptr, ptr %12, align 8, !tbaa !222
  %14 = tail call ptr @realloc(ptr noundef %13, i64 noundef %spec.select.i.i) #34
  store ptr %14, ptr %12, align 8, !tbaa !222
  %15 = icmp eq ptr %14, null
  br i1 %15, label %16, label %._ZN12_GLOBAL__N_116itanium_demangle12OutputBuffer4growEm.exit_crit_edge4.i

._ZN12_GLOBAL__N_116itanium_demangle12OutputBuffer4growEm.exit_crit_edge4.i: ; preds = %9
  %.pre5.i = load i64, ptr %3, align 8, !tbaa !224
  br label %_ZN12_GLOBAL__N_116itanium_demangle12OutputBuffer4growEm.exit.i

16:                                               ; preds = %9
  tail call void @abort() #33
  unreachable

_ZN12_GLOBAL__N_116itanium_demangle12OutputBuffer4growEm.exit.i: ; preds = %._ZN12_GLOBAL__N_116itanium_demangle12OutputBuffer4growEm.exit_crit_edge4.i, %._ZN12_GLOBAL__N_116itanium_demangle12OutputBuffer4growEm.exit_crit_edge.i
  %17 = phi i64 [ %4, %._ZN12_GLOBAL__N_116itanium_demangle12OutputBuffer4growEm.exit_crit_edge.i ], [ %.pre5.i, %._ZN12_GLOBAL__N_116itanium_demangle12OutputBuffer4growEm.exit_crit_edge4.i ]
  %18 = phi ptr [ %.pre.i, %._ZN12_GLOBAL__N_116itanium_demangle12OutputBuffer4growEm.exit_crit_edge.i ], [ %14, %._ZN12_GLOBAL__N_116itanium_demangle12OutputBuffer4growEm.exit_crit_edge4.i ]
  %19 = getelementptr inbounds nuw i8, ptr %18, i64 %17
  store i64 8390317583687315310, ptr %19, align 1
  %20 = load i64, ptr %3, align 8, !tbaa !224
  %21 = add i64 %20, 8
  store i64 %21, ptr %3, align 8, !tbaa !224
  %22 = getelementptr inbounds nuw i8, ptr %1, i64 40
  %23 = load i32, ptr %22, align 8, !tbaa !228
  %24 = add i32 %23, 1
  store i32 %24, ptr %22, align 8, !tbaa !228
  %25 = add i64 %20, 9
  %26 = load i64, ptr %6, align 8, !tbaa !225
  %27 = icmp ugt i64 %25, %26
  br i1 %27, label %28, label %._ZN12_GLOBAL__N_116itanium_demangle12OutputBuffer4growEm.exit_crit_edge.i.i

._ZN12_GLOBAL__N_116itanium_demangle12OutputBuffer4growEm.exit_crit_edge.i.i: ; preds = %_ZN12_GLOBAL__N_116itanium_demangle12OutputBuffer4growEm.exit.i
  %.phi.trans.insert.i.i = getelementptr inbounds nuw i8, ptr %1, i64 8
  %.pre.i.i = load ptr, ptr %.phi.trans.insert.i.i, align 8, !tbaa !222
  br label %_ZN12_GLOBAL__N_116itanium_demangle12OutputBuffer9printOpenEc.exit

28:                                               ; preds = %_ZN12_GLOBAL__N_116itanium_demangle12OutputBuffer4growEm.exit.i
  %29 = add i64 %20, 1001
  %30 = shl i64 %26, 1
  %spec.select.i.i.i = tail call i64 @llvm.umax.i64(i64 %30, i64 %29)
  store i64 %spec.select.i.i.i, ptr %6, align 8, !tbaa !225
  %31 = getelementptr inbounds nuw i8, ptr %1, i64 8
  %32 = load ptr, ptr %31, align 8, !tbaa !222
  %33 = tail call ptr @realloc(ptr noundef %32, i64 noundef %spec.select.i.i.i) #34
  store ptr %33, ptr %31, align 8, !tbaa !222
  %34 = icmp eq ptr %33, null
  br i1 %34, label %35, label %._ZN12_GLOBAL__N_116itanium_demangle12OutputBuffer4growEm.exit_crit_edge1.i.i

._ZN12_GLOBAL__N_116itanium_demangle12OutputBuffer4growEm.exit_crit_edge1.i.i: ; preds = %28
  %.pre2.i.i = load i64, ptr %3, align 8, !tbaa !224
  %.pre3.i.i = add i64 %.pre2.i.i, 1
  br label %_ZN12_GLOBAL__N_116itanium_demangle12OutputBuffer9printOpenEc.exit

35:                                               ; preds = %28
  tail call void @abort() #33
  unreachable

_ZN12_GLOBAL__N_116itanium_demangle12OutputBuffer9printOpenEc.exit: ; preds = %._ZN12_GLOBAL__N_116itanium_demangle12OutputBuffer4growEm.exit_crit_edge.i.i, %._ZN12_GLOBAL__N_116itanium_demangle12OutputBuffer4growEm.exit_crit_edge1.i.i
  %.pre-phi.i.i = phi i64 [ %.pre3.i.i, %._ZN12_GLOBAL__N_116itanium_demangle12OutputBuffer4growEm.exit_crit_edge1.i.i ], [ %25, %._ZN12_GLOBAL__N_116itanium_demangle12OutputBuffer4growEm.exit_crit_edge.i.i ]
  %36 = phi i64 [ %.pre2.i.i, %._ZN12_GLOBAL__N_116itanium_demangle12OutputBuffer4growEm.exit_crit_edge1.i.i ], [ %21, %._ZN12_GLOBAL__N_116itanium_demangle12OutputBuffer4growEm.exit_crit_edge.i.i ]
  %37 = phi ptr [ %33, %._ZN12_GLOBAL__N_116itanium_demangle12OutputBuffer4growEm.exit_crit_edge1.i.i ], [ %.pre.i.i, %._ZN12_GLOBAL__N_116itanium_demangle12OutputBuffer4growEm.exit_crit_edge.i.i ]
  store i64 %.pre-phi.i.i, ptr %3, align 8, !tbaa !224
  %38 = getelementptr inbounds nuw i8, ptr %37, i64 %36
  store i8 40, ptr %38, align 1, !tbaa !210
  %39 = getelementptr inbounds nuw i8, ptr %0, i64 16
  %40 = load ptr, ptr %39, align 8, !tbaa !269
  tail call fastcc void @_ZNK12_GLOBAL__N_116itanium_demangle4Node14printAsOperandERNS0_12OutputBufferENS1_4PrecEb(ptr noundef nonnull align 8 dereferenceable(11) %40, ptr noundef nonnull align 8 dereferenceable(44) %1, i8 noundef zeroext 19, i1 noundef zeroext false)
  %41 = load i32, ptr %22, align 8, !tbaa !228
  %42 = add i32 %41, -1
  store i32 %42, ptr %22, align 8, !tbaa !228
  %43 = load i64, ptr %3, align 8, !tbaa !224
  %44 = add i64 %43, 1
  %45 = load i64, ptr %6, align 8, !tbaa !225
  %46 = icmp ugt i64 %44, %45
  br i1 %46, label %47, label %._ZN12_GLOBAL__N_116itanium_demangle12OutputBuffer4growEm.exit_crit_edge.i.i5

._ZN12_GLOBAL__N_116itanium_demangle12OutputBuffer4growEm.exit_crit_edge.i.i5: ; preds = %_ZN12_GLOBAL__N_116itanium_demangle12OutputBuffer9printOpenEc.exit
  %.phi.trans.insert.i.i6 = getelementptr inbounds nuw i8, ptr %1, i64 8
  %.pre.i.i7 = load ptr, ptr %.phi.trans.insert.i.i6, align 8, !tbaa !222
  br label %_ZN12_GLOBAL__N_116itanium_demangle12OutputBuffer10printCloseEc.exit

47:                                               ; preds = %_ZN12_GLOBAL__N_116itanium_demangle12OutputBuffer9printOpenEc.exit
  %48 = add i64 %43, 993
  %49 = shl i64 %45, 1
  %spec.select.i.i.i9 = tail call i64 @llvm.umax.i64(i64 %49, i64 %48)
  store i64 %spec.select.i.i.i9, ptr %6, align 8, !tbaa !225
  %50 = getelementptr inbounds nuw i8, ptr %1, i64 8
  %51 = load ptr, ptr %50, align 8, !tbaa !222
  %52 = tail call ptr @realloc(ptr noundef %51, i64 noundef %spec.select.i.i.i9) #34
  store ptr %52, ptr %50, align 8, !tbaa !222
  %53 = icmp eq ptr %52, null
  br i1 %53, label %54, label %._ZN12_GLOBAL__N_116itanium_demangle12OutputBuffer4growEm.exit_crit_edge1.i.i10

._ZN12_GLOBAL__N_116itanium_demangle12OutputBuffer4growEm.exit_crit_edge1.i.i10: ; preds = %47
  %.pre2.i.i11 = load i64, ptr %3, align 8, !tbaa !224
  %.pre3.i.i12 = add i64 %.pre2.i.i11, 1
  br label %_ZN12_GLOBAL__N_116itanium_demangle12OutputBuffer10printCloseEc.exit

54:                                               ; preds = %47
  tail call void @abort() #33
  unreachable

_ZN12_GLOBAL__N_116itanium_demangle12OutputBuffer10printCloseEc.exit: ; preds = %._ZN12_GLOBAL__N_116itanium_demangle12OutputBuffer4growEm.exit_crit_edge.i.i5, %._ZN12_GLOBAL__N_116itanium_demangle12OutputBuffer4growEm.exit_crit_edge1.i.i10
  %.pre-phi.i.i8 = phi i64 [ %.pre3.i.i12, %._ZN12_GLOBAL__N_116itanium_demangle12OutputBuffer4growEm.exit_crit_edge1.i.i10 ], [ %44, %._ZN12_GLOBAL__N_116itanium_demangle12OutputBuffer4growEm.exit_crit_edge.i.i5 ]
  %55 = phi i64 [ %.pre2.i.i11, %._ZN12_GLOBAL__N_116itanium_demangle12OutputBuffer4growEm.exit_crit_edge1.i.i10 ], [ %43, %._ZN12_GLOBAL__N_116itanium_demangle12OutputBuffer4growEm.exit_crit_edge.i.i5 ]
  %56 = phi ptr [ %52, %._ZN12_GLOBAL__N_116itanium_demangle12OutputBuffer4growEm.exit_crit_edge1.i.i10 ], [ %.pre.i.i7, %._ZN12_GLOBAL__N_116itanium_demangle12OutputBuffer4growEm.exit_crit_edge.i.i5 ]
  store i64 %.pre-phi.i.i8, ptr %3, align 8, !tbaa !224
  %57 = getelementptr inbounds nuw i8, ptr %56, i64 %55
  store i8 41, ptr %57, align 1, !tbaa !210
  ret void
}